target datalayout = "e-m:e-p270:32:32-p271:32:32-p272:64:64-i64:64-i128:128-f80:128-n8:16:32:64-S128"
target triple = "x86_64-pc-linux-gnu"

%struct._object = type { %union.anon, ptr }
%union.anon = type { i64 }

@_Py_NoneStruct = external global %struct._object, align 8
@stderr = external global ptr, align 8

; Function Attrs: nounwind uwtable
define internal ptr @sys__debugmallocstats_impl(ptr noundef %0) #0 {
  %2 = alloca ptr, align 8
  store ptr %0, ptr %2, align 8, !tbaa !9
  %3 = load ptr, ptr @stderr, align 8, !tbaa !98
  %4 = call i32 @_PyObject_DebugMallocStats(ptr noundef %3)
  %5 = icmp ne i32 %4, 0
  br i1 %5, label %6, label %9

6:                                                ; preds = %1
  %7 = load ptr, ptr @stderr, align 8, !tbaa !98
  %8 = call i32 @fputc(i32 noundef 10, ptr noundef %7)
  br label %9

9:                                                ; preds = %6, %1
  %10 = load ptr, ptr @stderr, align 8, !tbaa !98
  call void @_PyObject_DebugTypeStats(ptr noundef %10)
  ret ptr @_Py_NoneStruct
}

; Function Attrs: nounwind uwtable
define internal ptr @sys__debugmallocstats(ptr noundef %0, ptr noundef %1) #0 {
  %3 = alloca ptr, align 8
  %4 = alloca ptr, align 8
  store ptr %0, ptr %3, align 8, !tbaa !9
  store ptr %1, ptr %4, align 8, !tbaa !9
  %5 = load ptr, ptr %3, align 8, !tbaa !9
  %6 = call ptr @sys__debugmallocstats_impl(ptr noundef %5)
  ret ptr %6
}