; Function Attrs: nounwind uwtable
define internal noundef nonnull ptr @sys__debugmallocstats(ptr readnone captures(none) %0, ptr readnone captures(none) %1) #0 {
  %3 = load ptr, ptr @stderr, align 8, !tbaa !97
  %4 = tail call i32 @_PyObject_DebugMallocStats(ptr noundef %3) #15
  %.not.i = icmp eq i32 %4, 0
  br i1 %.not.i, label %sys__debugmallocstats_impl.exit, label %5

5:                                                ; preds = %2
  %6 = load ptr, ptr @stderr, align 8, !tbaa !97
  %7 = tail call i32 @fputc(i32 noundef 10, ptr noundef %6)
  br label %sys__debugmallocstats_impl.exit

sys__debugmallocstats_impl.exit:                  ; preds = %2, %5
  %8 = load ptr, ptr @stderr, align 8, !tbaa !97
  tail call void @_PyObject_DebugTypeStats(ptr noundef %8) #15
  ret ptr @_Py_NoneStruct
}